; Function Attrs: mustprogress nofree nounwind uwtable
define void @_Z10ps_fillboxP8t_psdataffff(ptr noundef readonly captures(none) %0, float noundef %1, float noundef %2, float noundef %3, float noundef %4) local_unnamed_addr #8 {
  %6 = load ptr, ptr %0, align 8, !tbaa !9
  %7 = fpext float %1 to double
  %8 = fpext float %2 to double
  %9 = tail call i32 (ptr, ptr, ...) @fprintf(ptr noundef %6, ptr noundef nonnull @.str.37, double noundef %7, double noundef %8) #18
  %10 = fsub float %4, %2
  %11 = load ptr, ptr %0, align 8, !tbaa !9
  %12 = fpext float %10 to double
  %13 = tail call i32 (ptr, ptr, ...) @fprintf(ptr noundef %11, ptr noundef nonnull @.str.36, double noundef 0.000000e+00, double noundef %12) #18
  %14 = fsub float %3, %1
  %15 = load ptr, ptr %0, align 8, !tbaa !9
  %16 = fpext float %14 to double
  %17 = tail call i32 (ptr, ptr, ...) @fprintf(ptr noundef %15, ptr noundef nonnull @.str.36, double noundef %16, double noundef 0.000000e+00) #18
  %18 = fsub float %2, %4
  %19 = load ptr, ptr %0, align 8, !tbaa !9
  %20 = fpext float %18 to double
  %21 = tail call i32 (ptr, ptr, ...) @fprintf(ptr noundef %19, ptr noundef nonnull @.str.36, double noundef 0.000000e+00, double noundef %20) #18
  %22 = fsub float %1, %3
  %23 = load ptr, ptr %0, align 8, !tbaa !9
  %24 = fpext float %22 to double
  %25 = tail call i32 (ptr, ptr, ...) @fprintf(ptr noundef %23, ptr noundef nonnull @.str.36, double noundef %24, double noundef 0.000000e+00) #18
  %26 = load ptr, ptr %0, align 8, !tbaa !9
  %27 = tail call i64 @fwrite(ptr nonnull @.str.40, i64 2, i64 1, ptr %26)
  ret void
}